target datalayout = "e-m:e-p270:32:32-p271:32:32-p272:64:64-i64:64-i128:128-f80:128-n8:16:32:64-S128"
target triple = "x86_64-unknown-linux-gnu"

%"class.rocksdb::JemallocNodumpAllocator" = type <{ %"class.rocksdb::BaseMemoryAllocator", %"struct.rocksdb::JemallocAllocatorOptions", %"class.std::vector.19", %"class.rocksdb::ThreadLocalPtr", [4 x i8], %"class.std::vector.24", i8, [7 x i8] }>
%"class.rocksdb::BaseMemoryAllocator" = type { %"class.rocksdb::MemoryAllocator" }
%"class.rocksdb::MemoryAllocator" = type { %"class.rocksdb::Customizable" }
%"class.rocksdb::Customizable" = type { %"class.rocksdb::Configurable" }
%"class.rocksdb::Configurable" = type { ptr, %"class.std::vector" }
%"class.std::vector" = type { %"struct.std::_Vector_base" }
%"struct.std::_Vector_base" = type { %"struct.std::_Vector_base<rocksdb::Configurable::RegisteredOptions, std::allocator<rocksdb::Configurable::RegisteredOptions>>::_Vector_impl" }
%"struct.std::_Vector_base<rocksdb::Configurable::RegisteredOptions, std::allocator<rocksdb::Configurable::RegisteredOptions>>::_Vector_impl" = type { %"struct.std::_Vector_base<rocksdb::Configurable::RegisteredOptions, std::allocator<rocksdb::Configurable::RegisteredOptions>>::_Vector_impl_data" }
%"struct.std::_Vector_base<rocksdb::Configurable::RegisteredOptions, std::allocator<rocksdb::Configurable::RegisteredOptions>>::_Vector_impl_data" = type { ptr, ptr, ptr }
%"struct.rocksdb::JemallocAllocatorOptions" = type { i8, i64, i64, i64 }
%"class.std::vector.19" = type { %"struct.std::_Vector_base.20" }
%"struct.std::_Vector_base.20" = type { %"struct.std::_Vector_base<std::unique_ptr<extent_hooks_s>, std::allocator<std::unique_ptr<extent_hooks_s>>>::_Vector_impl" }
%"struct.std::_Vector_base<std::unique_ptr<extent_hooks_s>, std::allocator<std::unique_ptr<extent_hooks_s>>>::_Vector_impl" = type { %"struct.std::_Vector_base<std::unique_ptr<extent_hooks_s>, std::allocator<std::unique_ptr<extent_hooks_s>>>::_Vector_impl_data" }
%"struct.std::_Vector_base<std::unique_ptr<extent_hooks_s>, std::allocator<std::unique_ptr<extent_hooks_s>>>::_Vector_impl_data" = type { ptr, ptr, ptr }
%"class.rocksdb::ThreadLocalPtr" = type { i32 }
%"class.std::vector.24" = type { %"struct.std::_Vector_base.25" }
%"struct.std::_Vector_base.25" = type { %"struct.std::_Vector_base<unsigned int, std::allocator<unsigned int>>::_Vector_impl" }
%"struct.std::_Vector_base<unsigned int, std::allocator<unsigned int>>::_Vector_impl" = type { %"struct.std::_Vector_base<unsigned int, std::allocator<unsigned int>>::_Vector_impl_data" }
%"struct.std::_Vector_base<unsigned int, std::allocator<unsigned int>>::_Vector_impl_data" = type { ptr, ptr, ptr }

; Function Attrs: mustprogress uwtable
define void @_ZN7rocksdb23JemallocNodumpAllocator10DeallocateEPv(ptr noundef nonnull align 8 dereferenceable(121) %this, ptr noundef %p) unnamed_addr #2 align 2 {
entry:
  %this.addr = alloca ptr, align 8
  %p.addr = alloca ptr, align 8
  %size = alloca i64, align 8
  %tcache_flag = alloca i32, align 4
  store ptr %this, ptr %this.addr, align 8
  store ptr %p, ptr %p.addr, align 8
  %this1 = load ptr, ptr %this.addr, align 8
  store i64 0, ptr %size, align 8
  %options_ = getelementptr inbounds %"class.rocksdb::JemallocNodumpAllocator", ptr %this1, i32 0, i32 1
  %limit_tcache_size = getelementptr inbounds %"struct.rocksdb::JemallocAllocatorOptions", ptr %options_, i32 0, i32 0
  %0 = load i8, ptr %limit_tcache_size, align 8
  %tobool = trunc i8 %0 to i1
  br i1 %tobool, label %if.then, label %if.end

if.then:                                          ; preds = %entry
  %1 = load ptr, ptr %p.addr, align 8
  %call = call i64 @malloc_usable_size(ptr noundef %1) #4
  store i64 %call, ptr %size, align 8
  br label %if.end

if.end:                                           ; preds = %if.then, %entry
  %2 = load i64, ptr %size, align 8
  %call2 = call noundef i32 @_ZN7rocksdb23JemallocNodumpAllocator22GetThreadSpecificCacheEm(ptr noundef nonnull align 8 dereferenceable(121) %this1, i64 noundef %2)
  store i32 %call2, ptr %tcache_flag, align 4
  %3 = load ptr, ptr %p.addr, align 8
  %4 = load i32, ptr %tcache_flag, align 4
  call void @dallocx(ptr noundef %3, i32 noundef %4) #4
  ret void
}