; Function Attrs: mustprogress uwtable
define void @_ZN7rocksdb23JemallocNodumpAllocator10DeallocateEPv(ptr noundef nonnull align 8 dereferenceable(121) %this, ptr noundef %p) unnamed_addr #1 align 2 {
entry:
  %options_ = getelementptr inbounds i8, ptr %this, i64 32
  %0 = load i8, ptr %options_, align 8
  %1 = and i8 %0, 1
  %tobool.not = icmp eq i8 %1, 0
  br i1 %tobool.not, label %if.end, label %if.then

if.then:                                          ; preds = %entry
  %call = tail call i64 @malloc_usable_size(ptr noundef %p) #24
  br label %if.end

if.end:                                           ; preds = %if.then, %entry
  %size.0 = phi i64 [ %call, %if.then ], [ 0, %entry ]
  %call2 = tail call noundef i32 @_ZN7rocksdb23JemallocNodumpAllocator22GetThreadSpecificCacheEm(ptr noundef nonnull align 8 dereferenceable(121) %this, i64 noundef %size.0), !range !15
  tail call void @dallocx(ptr noundef %p, i32 noundef %call2) #24
  ret void
}